target datalayout = "e-m:e-p270:32:32-p271:32:32-p272:64:64-i64:64-i128:128-f80:128-n8:16:32:64-S128"
target triple = "x86_64-pc-linux-gnu"

%struct.strbuf = type { i64, i64, ptr }

@__const.new_http_pack_request.buf = private unnamed_addr constant %struct.strbuf { i64 0, i64 0, ptr @strbuf_slopbuf }, align 8
@.str.46 = private unnamed_addr constant [26 x i8] c"objects/pack/pack-%s.pack\00", align 1

; Function Attrs: nounwind uwtable
define dso_local ptr @new_http_pack_request(ptr noundef %0, ptr noundef %1) #0 {
  %3 = alloca ptr, align 8
  %4 = alloca ptr, align 8
  %5 = alloca %struct.strbuf, align 8
  store ptr %0, ptr %3, align 8, !tbaa !4
  store ptr %1, ptr %4, align 8, !tbaa !4
  call void @llvm.lifetime.start.p0(i64 24, ptr %5) #11
  call void @llvm.memcpy.p0.p0.i64(ptr align 8 %5, ptr align 8 @__const.new_http_pack_request.buf, i64 24, i1 false)
  %6 = load ptr, ptr %4, align 8, !tbaa !4
  call void @end_url_with_slash(ptr noundef %5, ptr noundef %6)
  %7 = load ptr, ptr %3, align 8, !tbaa !4
  %8 = call ptr @hash_to_hex(ptr noundef %7)
  call void (ptr, ptr, ...) @strbuf_addf(ptr noundef %5, ptr noundef @.str.46, ptr noundef %8)
  %9 = load ptr, ptr %3, align 8, !tbaa !4
  %10 = call ptr @strbuf_detach(ptr noundef %5, ptr noundef null)
  %11 = call ptr @new_direct_http_pack_request(ptr noundef %9, ptr noundef %10)
  call void @llvm.lifetime.end.p0(i64 24, ptr %5) #11
  ret ptr %11
}