; Function Attrs: nounwind uwtable
define dso_local ptr @new_http_pack_request(ptr noundef %0, ptr noundef %1) local_unnamed_addr #3 {
  %3 = alloca %struct.strbuf, align 8
  call void @llvm.lifetime.start.p0(i64 24, ptr nonnull %3) #22
  call void @llvm.memcpy.p0.p0.i64(ptr noundef nonnull align 8 dereferenceable(24) %3, ptr noundef nonnull align 8 dereferenceable(24) @__const.fetch_pack_index.buf, i64 24, i1 false)
  call void @end_url_with_slash(ptr noundef nonnull %3, ptr noundef %1) #22
  %4 = call ptr @hash_to_hex(ptr noundef %0) #22
  call void (ptr, ptr, ...) @strbuf_addf(ptr noundef nonnull %3, ptr noundef nonnull @.str.46, ptr noundef %4) #22
  %5 = call ptr @strbuf_detach(ptr noundef nonnull %3, ptr noundef null) #22
  %6 = call ptr @new_direct_http_pack_request(ptr noundef %0, ptr noundef %5)
  call void @llvm.lifetime.end.p0(i64 24, ptr nonnull %3) #22
  ret ptr %6
}